target datalayout = "e-m:e-p270:32:32-p271:32:32-p272:64:64-i64:64-i128:128-f80:128-n8:16:32:64-S128"
target triple = "x86_64-pc-linux-gnu"

%struct.ossl_param_st = type { ptr, i32, ptr, i64, i64 }

; Function Attrs: nounwind uwtable
define internal i32 @test_param_type_null(ptr noundef %0) #0 {
  %2 = alloca i32, align 4
  %3 = alloca ptr, align 8
  %4 = alloca i32, align 4
  %5 = alloca i64, align 8
  %6 = alloca double, align 8
  %7 = alloca ptr, align 8
  %8 = alloca i32, align 4
  store ptr %0, ptr %3, align 8, !tbaa !25
  call void @llvm.lifetime.start.p0(i64 4, ptr %4) #5
  store i32 0, ptr %4, align 4, !tbaa !4
  call void @llvm.lifetime.start.p0(i64 8, ptr %5) #5
  call void @llvm.lifetime.start.p0(i64 8, ptr %6) #5
  call void @llvm.lifetime.start.p0(i64 8, ptr %7) #5
  %9 = load ptr, ptr %3, align 8, !tbaa !25
  %10 = getelementptr inbounds nuw %struct.ossl_param_st, ptr %9, i32 0, i32 1
  %11 = load i32, ptr %10, align 8, !tbaa !33
  switch i32 %11, label %56 [
    i32 1, label %12
    i32 2, label %31
    i32 3, label %52
    i32 4, label %55
    i32 5, label %55
    i32 6, label %55
    i32 7, label %55
  ]

12:                                               ; preds = %1
  %13 = load ptr, ptr %3, align 8, !tbaa !25
  %14 = getelementptr inbounds nuw %struct.ossl_param_st, ptr %13, i32 0, i32 3
  %15 = load i64, ptr %14, align 8, !tbaa !18
  %16 = icmp eq i64 %15, 4
  br i1 %16, label %17, label %20

17:                                               ; preds = %12
  %18 = load ptr, ptr %3, align 8, !tbaa !25
  %19 = call i32 @OSSL_PARAM_get_int32(ptr noundef %18, ptr noundef %5)
  store i32 %19, ptr %4, align 4, !tbaa !4
  br label %30

20:                                               ; preds = %12
  %21 = load ptr, ptr %3, align 8, !tbaa !25
  %22 = getelementptr inbounds nuw %struct.ossl_param_st, ptr %21, i32 0, i32 3
  %23 = load i64, ptr %22, align 8, !tbaa !18
  %24 = icmp eq i64 %23, 8
  br i1 %24, label %25, label %28

25:                                               ; preds = %20
  %26 = load ptr, ptr %3, align 8, !tbaa !25
  %27 = call i32 @OSSL_PARAM_get_int64(ptr noundef %26, ptr noundef %5)
  store i32 %27, ptr %4, align 4, !tbaa !4
  br label %29

28:                                               ; preds = %20
  store i32 1, ptr %2, align 4
  store i32 1, ptr %8, align 4
  br label %60

29:                                               ; preds = %25
  br label %30

30:                                               ; preds = %29, %17
  br label %56

31:                                               ; preds = %1
  %32 = load ptr, ptr %3, align 8, !tbaa !25
  %33 = getelementptr inbounds nuw %struct.ossl_param_st, ptr %32, i32 0, i32 3
  %34 = load i64, ptr %33, align 8, !tbaa !18
  %35 = icmp eq i64 %34, 4
  br i1 %35, label %36, label %39

36:                                               ; preds = %31
  %37 = load ptr, ptr %3, align 8, !tbaa !25
  %38 = call i32 @OSSL_PARAM_get_uint32(ptr noundef %37, ptr noundef %5)
  store i32 %38, ptr %4, align 4, !tbaa !4
  br label %51

39:                                               ; preds = %31
  %40 = load ptr, ptr %3, align 8, !tbaa !25
  %41 = getelementptr inbounds nuw %struct.ossl_param_st, ptr %40, i32 0, i32 3
  %42 = load i64, ptr %41, align 8, !tbaa !18
  %43 = icmp eq i64 %42, 8
  br i1 %43, label %44, label %47

44:                                               ; preds = %39
  %45 = load ptr, ptr %3, align 8, !tbaa !25
  %46 = call i32 @OSSL_PARAM_get_uint64(ptr noundef %45, ptr noundef %5)
  store i32 %46, ptr %4, align 4, !tbaa !4
  br label %50

47:                                               ; preds = %39
  %48 = load ptr, ptr %3, align 8, !tbaa !25
  %49 = call i32 @OSSL_PARAM_get_BN(ptr noundef %48, ptr noundef %7)
  store i32 %49, ptr %4, align 4, !tbaa !4
  br label %50

50:                                               ; preds = %47, %44
  br label %51

51:                                               ; preds = %50, %36
  br label %56

52:                                               ; preds = %1
  %53 = load ptr, ptr %3, align 8, !tbaa !25
  %54 = call i32 @OSSL_PARAM_get_double(ptr noundef %53, ptr noundef %6)
  store i32 %54, ptr %4, align 4, !tbaa !4
  br label %56

55:                                               ; preds = %1, %1, %1, %1
  store i32 1, ptr %2, align 4
  store i32 1, ptr %8, align 4
  br label %60

56:                                               ; preds = %1, %52, %51, %30
  %57 = load i32, ptr %4, align 4, !tbaa !4
  %58 = icmp eq i32 %57, 0
  %59 = zext i1 %58 to i32
  store i32 %59, ptr %2, align 4
  store i32 1, ptr %8, align 4
  br label %60

60:                                               ; preds = %56, %55, %28
  call void @llvm.lifetime.end.p0(i64 8, ptr %7) #5
  call void @llvm.lifetime.end.p0(i64 8, ptr %6) #5
  call void @llvm.lifetime.end.p0(i64 8, ptr %5) #5
  call void @llvm.lifetime.end.p0(i64 4, ptr %4) #5
  %61 = load i32, ptr %2, align 4
  ret i32 %61
}