; Function Attrs: nounwind uwtable
define internal fastcc range(i32 0, 2) i32 @test_param_type_null(ptr noundef nonnull %0) unnamed_addr #0 {
  %2 = alloca i64, align 8
  %3 = alloca double, align 8
  %4 = alloca ptr, align 8
  call void @llvm.lifetime.start.p0(i64 8, ptr nonnull %2) #5
  call void @llvm.lifetime.start.p0(i64 8, ptr nonnull %3) #5
  call void @llvm.lifetime.start.p0(i64 8, ptr nonnull %4) #5
  %5 = getelementptr inbounds nuw i8, ptr %0, i64 8
  %6 = load i32, ptr %5, align 8, !tbaa !31
  switch i32 %6, label %25 [
    i32 1, label %7
    i32 2, label %14
    i32 3, label %23
    i32 4, label %28
    i32 5, label %28
    i32 6, label %28
    i32 7, label %28
  ]

7:                                                ; preds = %1
  %8 = getelementptr inbounds nuw i8, ptr %0, i64 24
  %9 = load i64, ptr %8, align 8, !tbaa !18
  switch i64 %9, label %28 [
    i64 4, label %10
    i64 8, label %12
  ]

10:                                               ; preds = %7
  %11 = call i32 @OSSL_PARAM_get_int32(ptr noundef nonnull %0, ptr noundef nonnull %2) #5
  br label %25

12:                                               ; preds = %7
  %13 = call i32 @OSSL_PARAM_get_int64(ptr noundef nonnull %0, ptr noundef nonnull %2) #5
  br label %25

14:                                               ; preds = %1
  %15 = getelementptr inbounds nuw i8, ptr %0, i64 24
  %16 = load i64, ptr %15, align 8, !tbaa !18
  switch i64 %16, label %21 [
    i64 4, label %17
    i64 8, label %19
  ]

17:                                               ; preds = %14
  %18 = call i32 @OSSL_PARAM_get_uint32(ptr noundef nonnull %0, ptr noundef nonnull %2) #5
  br label %25

19:                                               ; preds = %14
  %20 = call i32 @OSSL_PARAM_get_uint64(ptr noundef nonnull %0, ptr noundef nonnull %2) #5
  br label %25

21:                                               ; preds = %14
  %22 = call i32 @OSSL_PARAM_get_BN(ptr noundef nonnull %0, ptr noundef nonnull %4) #5
  br label %25

23:                                               ; preds = %1
  %24 = call i32 @OSSL_PARAM_get_double(ptr noundef nonnull %0, ptr noundef nonnull %3) #5
  br label %25

25:                                               ; preds = %17, %21, %19, %10, %12, %23, %1
  %.0 = phi i32 [ 0, %1 ], [ %24, %23 ], [ %18, %17 ], [ %20, %19 ], [ %22, %21 ], [ %11, %10 ], [ %13, %12 ]
  %26 = icmp eq i32 %.0, 0
  %27 = zext i1 %26 to i32
  br label %28

28:                                               ; preds = %1, %1, %1, %1, %7, %25
  %.012 = phi i32 [ %27, %25 ], [ 1, %7 ], [ 1, %1 ], [ 1, %1 ], [ 1, %1 ], [ 1, %1 ]
  call void @llvm.lifetime.end.p0(i64 8, ptr nonnull %4) #5
  call void @llvm.lifetime.end.p0(i64 8, ptr nonnull %3) #5
  call void @llvm.lifetime.end.p0(i64 8, ptr nonnull %2) #5
  ret i32 %.012
}